target datalayout = "e-m:e-p270:32:32-p271:32:32-p272:64:64-i64:64-i128:128-f80:128-n8:16:32:64-S128"
target triple = "x86_64-pc-linux-gnu"

; Function Attrs: inlinehint nounwind sspstrong willreturn memory(none) uwtable
define internal i64 @rbimpl_fix2long_by_idiv(i64 noundef %0) #18 {
  %2 = alloca i64, align 8
  %3 = alloca i64, align 8
  %4 = alloca i64, align 8
  %5 = alloca i64, align 8
  store i64 %0, ptr %2, align 8, !tbaa !13
  call void @llvm.lifetime.start.p0(i64 8, ptr %3) #5
  %6 = load i64, ptr %2, align 8, !tbaa !13
  %7 = sub i64 %6, 1
  store i64 %7, ptr %3, align 8, !tbaa !13
  call void @llvm.lifetime.start.p0(i64 8, ptr %4) #5
  %8 = load i64, ptr %3, align 8, !tbaa !13
  %9 = sdiv i64 %8, 2
  store i64 %9, ptr %4, align 8, !tbaa !13
  call void @llvm.lifetime.start.p0(i64 8, ptr %5) #5
  %10 = load i64, ptr %4, align 8, !tbaa !13
  store i64 %10, ptr %5, align 8, !tbaa !13
  %11 = load i64, ptr %5, align 8, !tbaa !13
  call void @llvm.lifetime.end.p0(i64 8, ptr %5) #5
  call void @llvm.lifetime.end.p0(i64 8, ptr %4) #5
  call void @llvm.lifetime.end.p0(i64 8, ptr %3) #5
  ret i64 %11
}

; Function Attrs: inlinehint nounwind sspstrong willreturn memory(none) uwtable
define internal i64 @rbimpl_fix2long_by_shift(i64 noundef %0) #18 {
  %2 = alloca i64, align 8
  %3 = alloca i64, align 8
  %4 = alloca i64, align 8
  %5 = alloca i64, align 8
  store i64 %0, ptr %2, align 8, !tbaa !13
  call void @llvm.lifetime.start.p0(i64 8, ptr %3) #5
  %6 = load i64, ptr %2, align 8, !tbaa !13
  store i64 %6, ptr %3, align 8, !tbaa !13
  call void @llvm.lifetime.start.p0(i64 8, ptr %4) #5
  %7 = load i64, ptr %3, align 8, !tbaa !13
  %8 = ashr i64 %7, 1
  store i64 %8, ptr %4, align 8, !tbaa !13
  call void @llvm.lifetime.start.p0(i64 8, ptr %5) #5
  %9 = load i64, ptr %4, align 8, !tbaa !13
  store i64 %9, ptr %5, align 8, !tbaa !13
  %10 = load i64, ptr %5, align 8, !tbaa !13
  call void @llvm.lifetime.end.p0(i64 8, ptr %5) #5
  call void @llvm.lifetime.end.p0(i64 8, ptr %4) #5
  call void @llvm.lifetime.end.p0(i64 8, ptr %3) #5
  ret i64 %10
}

; Function Attrs: inlinehint nounwind sspstrong willreturn memory(none) uwtable
define internal zeroext i1 @rbimpl_right_shift_is_arithmetic_p() #18 {
  ret i1 true
}

; Function Attrs: inlinehint nounwind sspstrong willreturn memory(none) uwtable
define internal i64 @RB_INT2FIX(i64 noundef %0) #18 {
  %2 = alloca i64, align 8
  %3 = alloca i64, align 8
  %4 = alloca i64, align 8
  %5 = alloca i64, align 8
  %6 = alloca i64, align 8
  %7 = alloca i64, align 8
  store i64 %0, ptr %2, align 8, !tbaa !13
  call void @llvm.lifetime.start.p0(i64 8, ptr %3) #5
  %8 = load i64, ptr %2, align 8, !tbaa !13
  store i64 %8, ptr %3, align 8, !tbaa !13
  call void @llvm.lifetime.start.p0(i64 8, ptr %4) #5
  %9 = load i64, ptr %3, align 8, !tbaa !13
  %10 = shl i64 %9, 1
  %11 = add i64 %10, 1
  store i64 %11, ptr %4, align 8, !tbaa !13
  call void @llvm.lifetime.start.p0(i64 8, ptr %5) #5
  %12 = load i64, ptr %4, align 8, !tbaa !13
  store i64 %12, ptr %5, align 8, !tbaa !13
  call void @llvm.lifetime.start.p0(i64 8, ptr %6) #5
  %13 = load i64, ptr %5, align 8, !tbaa !13
  store i64 %13, ptr %6, align 8, !tbaa !13
  call void @llvm.lifetime.start.p0(i64 8, ptr %7) #5
  %14 = load i64, ptr %6, align 8, !tbaa !13
  store i64 %14, ptr %7, align 8, !tbaa !13
  %15 = load i64, ptr %7, align 8, !tbaa !13
  call void @llvm.lifetime.end.p0(i64 8, ptr %7) #5
  call void @llvm.lifetime.end.p0(i64 8, ptr %6) #5
  call void @llvm.lifetime.end.p0(i64 8, ptr %5) #5
  call void @llvm.lifetime.end.p0(i64 8, ptr %4) #5
  call void @llvm.lifetime.end.p0(i64 8, ptr %3) #5
  ret i64 %15
}

; Function Attrs: inlinehint nounwind sspstrong uwtable
define internal i64 @rb_long2num_inline(i64 noundef %0) #7 {
  %2 = alloca i64, align 8
  %3 = alloca i64, align 8
  store i64 %0, ptr %3, align 8, !tbaa !13
  %4 = load i64, ptr %3, align 8, !tbaa !13
  %5 = icmp slt i64 %4, 4611686018427387904
  br i1 %5, label %6, label %12

6:                                                ; preds = %1
  %7 = load i64, ptr %3, align 8, !tbaa !13
  %8 = icmp sge i64 %7, -4611686018427387904
  br i1 %8, label %9, label %12

9:                                                ; preds = %6
  %10 = load i64, ptr %3, align 8, !tbaa !13
  %11 = call i64 @RB_INT2FIX(i64 noundef %10) #27
  store i64 %11, ptr %2, align 8
  br label %15

12:                                               ; preds = %6, %1
  %13 = load i64, ptr %3, align 8, !tbaa !13
  %14 = call i64 @rb_int2big(i64 noundef %13)
  store i64 %14, ptr %2, align 8
  br label %15

15:                                               ; preds = %12, %9
  %16 = load i64, ptr %2, align 8
  ret i64 %16
}

; Function Attrs: inlinehint nounwind sspstrong willreturn memory(none) uwtable
define internal i64 @rb_fix2long(i64 noundef %0) #18 {
  %2 = alloca i64, align 8
  %3 = alloca i64, align 8
  store i64 %0, ptr %3, align 8, !tbaa !13
  %4 = call zeroext i1 @rbimpl_right_shift_is_arithmetic_p() #27
  br i1 %4, label %5, label %8

5:                                                ; preds = %1
  %6 = load i64, ptr %3, align 8, !tbaa !13
  %7 = call i64 @rbimpl_fix2long_by_shift(i64 noundef %6) #27
  store i64 %7, ptr %2, align 8
  br label %11

8:                                                ; preds = %1
  %9 = load i64, ptr %3, align 8, !tbaa !13
  %10 = call i64 @rbimpl_fix2long_by_idiv(i64 noundef %9) #27
  store i64 %10, ptr %2, align 8
  br label %11

11:                                               ; preds = %8, %5
  %12 = load i64, ptr %2, align 8
  ret i64 %12
}

; Function Attrs: inlinehint nounwind sspstrong uwtable
define internal void @rb_fix_divmod_fix(i64 noundef %0, i64 noundef %1, ptr noundef %2, ptr noundef %3) #7 {
  %5 = alloca i64, align 8
  %6 = alloca i64, align 8
  %7 = alloca ptr, align 8
  %8 = alloca ptr, align 8
  %9 = alloca i64, align 8
  %10 = alloca i64, align 8
  %11 = alloca i64, align 8
  %12 = alloca i64, align 8
  %13 = alloca i32, align 4
  store i64 %0, ptr %5, align 8, !tbaa !13
  store i64 %1, ptr %6, align 8, !tbaa !13
  store ptr %2, ptr %7, align 8, !tbaa !16
  store ptr %3, ptr %8, align 8, !tbaa !16
  call void @llvm.lifetime.start.p0(i64 8, ptr %9) #5
  %14 = load i64, ptr %5, align 8, !tbaa !13
  %15 = call i64 @rb_fix2long(i64 noundef %14) #27
  store i64 %15, ptr %9, align 8, !tbaa !13
  call void @llvm.lifetime.start.p0(i64 8, ptr %10) #5
  %16 = load i64, ptr %6, align 8, !tbaa !13
  %17 = call i64 @rb_fix2long(i64 noundef %16) #27
  store i64 %17, ptr %10, align 8, !tbaa !13
  call void @llvm.lifetime.start.p0(i64 8, ptr %11) #5
  call void @llvm.lifetime.start.p0(i64 8, ptr %12) #5
  %18 = load i64, ptr %9, align 8, !tbaa !13
  %19 = icmp eq i64 %18, -4611686018427387904
  br i1 %19, label %20, label %36

20:                                               ; preds = %4
  %21 = load i64, ptr %10, align 8, !tbaa !13
  %22 = icmp eq i64 %21, -1
  br i1 %22, label %23, label %36

23:                                               ; preds = %20
  %24 = load ptr, ptr %7, align 8, !tbaa !16
  %25 = icmp ne ptr %24, null
  br i1 %25, label %26, label %29

26:                                               ; preds = %23
  %27 = call i64 @rb_long2num_inline(i64 noundef 4611686018427387904)
  %28 = load ptr, ptr %7, align 8, !tbaa !16
  store i64 %27, ptr %28, align 8, !tbaa !13
  br label %29

29:                                               ; preds = %26, %23
  %30 = load ptr, ptr %8, align 8, !tbaa !16
  %31 = icmp ne ptr %30, null
  br i1 %31, label %32, label %35

32:                                               ; preds = %29
  %33 = call i64 @RB_INT2FIX(i64 noundef 0) #27
  %34 = load ptr, ptr %8, align 8, !tbaa !16
  store i64 %33, ptr %34, align 8, !tbaa !13
  br label %35

35:                                               ; preds = %32, %29
  store i32 1, ptr %13, align 4
  br label %72

36:                                               ; preds = %20, %4
  %37 = load i64, ptr %9, align 8, !tbaa !13
  %38 = load i64, ptr %10, align 8, !tbaa !13
  %39 = sdiv i64 %37, %38
  store i64 %39, ptr %11, align 8, !tbaa !13
  %40 = load i64, ptr %9, align 8, !tbaa !13
  %41 = load i64, ptr %10, align 8, !tbaa !13
  %42 = srem i64 %40, %41
  store i64 %42, ptr %12, align 8, !tbaa !13
  %43 = load i64, ptr %10, align 8, !tbaa !13
  %44 = icmp sgt i64 %43, 0
  br i1 %44, label %45, label %48

45:                                               ; preds = %36
  %46 = load i64, ptr %12, align 8, !tbaa !13
  %47 = icmp slt i64 %46, 0
  br i1 %47, label %51, label %57

48:                                               ; preds = %36
  %49 = load i64, ptr %12, align 8, !tbaa !13
  %50 = icmp sgt i64 %49, 0
  br i1 %50, label %51, label %57

51:                                               ; preds = %48, %45
  %52 = load i64, ptr %10, align 8, !tbaa !13
  %53 = load i64, ptr %12, align 8, !tbaa !13
  %54 = add i64 %53, %52
  store i64 %54, ptr %12, align 8, !tbaa !13
  %55 = load i64, ptr %11, align 8, !tbaa !13
  %56 = sub i64 %55, 1
  store i64 %56, ptr %11, align 8, !tbaa !13
  br label %57

57:                                               ; preds = %51, %48, %45
  %58 = load ptr, ptr %7, align 8, !tbaa !16
  %59 = icmp ne ptr %58, null
  br i1 %59, label %60, label %64

60:                                               ; preds = %57
  %61 = load i64, ptr %11, align 8, !tbaa !13
  %62 = call i64 @RB_INT2FIX(i64 noundef %61) #27
  %63 = load ptr, ptr %7, align 8, !tbaa !16
  store i64 %62, ptr %63, align 8, !tbaa !13
  br label %64

64:                                               ; preds = %60, %57
  %65 = load ptr, ptr %8, align 8, !tbaa !16
  %66 = icmp ne ptr %65, null
  br i1 %66, label %67, label %71

67:                                               ; preds = %64
  %68 = load i64, ptr %12, align 8, !tbaa !13
  %69 = call i64 @RB_INT2FIX(i64 noundef %68) #27
  %70 = load ptr, ptr %8, align 8, !tbaa !16
  store i64 %69, ptr %70, align 8, !tbaa !13
  br label %71

71:                                               ; preds = %67, %64
  store i32 0, ptr %13, align 4
  br label %72

72:                                               ; preds = %71, %35
  call void @llvm.lifetime.end.p0(i64 8, ptr %12) #5
  call void @llvm.lifetime.end.p0(i64 8, ptr %11) #5
  call void @llvm.lifetime.end.p0(i64 8, ptr %10) #5
  call void @llvm.lifetime.end.p0(i64 8, ptr %9) #5
  %73 = load i32, ptr %13, align 4
  switch i32 %73, label %75 [
    i32 0, label %74
    i32 1, label %74
  ]

74:                                               ; preds = %72, %72
  ret void

75:                                               ; preds = %72
  unreachable
}

; Function Attrs: inlinehint nounwind sspstrong uwtable
define internal i64 @rb_fix_div_fix(i64 noundef %0, i64 noundef %1) #7 {
  %3 = alloca i64, align 8
  %4 = alloca i64, align 8
  %5 = alloca i64, align 8
  store i64 %0, ptr %3, align 8, !tbaa !13
  store i64 %1, ptr %4, align 8, !tbaa !13
  call void @llvm.lifetime.start.p0(i64 8, ptr %5) #5
  %6 = load i64, ptr %3, align 8, !tbaa !13
  %7 = load i64, ptr %4, align 8, !tbaa !13
  call void @rb_fix_divmod_fix(i64 noundef %6, i64 noundef %7, ptr noundef %5, ptr noundef null)
  %8 = load i64, ptr %5, align 8, !tbaa !13
  call void @llvm.lifetime.end.p0(i64 8, ptr %5) #5
  ret i64 %8
}

; Function Attrs: nounwind sspstrong uwtable
define hidden i64 @rb_yjit_fix_div_fix(i64 noundef %0, i64 noundef %1) #0 {
  %3 = alloca i64, align 8
  %4 = alloca i64, align 8
  store i64 %0, ptr %3, align 8, !tbaa !13
  store i64 %1, ptr %4, align 8, !tbaa !13
  %5 = load i64, ptr %3, align 8, !tbaa !13
  %6 = load i64, ptr %4, align 8, !tbaa !13
  %7 = call i64 @rb_fix_div_fix(i64 noundef %5, i64 noundef %6)
  ret i64 %7
}