; Function Attrs: nounwind sspstrong uwtable
define hidden i64 @rb_yjit_fix_div_fix(i64 noundef %0, i64 noundef %1) local_unnamed_addr #0 {
  %3 = ashr i64 %0, 1
  %4 = ashr i64 %1, 1
  %5 = icmp eq i64 %3, -4611686018427387904
  %6 = icmp eq i64 %4, -1
  %or.cond.i.i = and i1 %5, %6
  br i1 %or.cond.i.i, label %7, label %9

7:                                                ; preds = %2
  %8 = tail call i64 @rb_int2big(i64 noundef 4611686018427387904) #5
  br label %rb_fix_div_fix.exit

9:                                                ; preds = %2
  %10 = sdiv i64 %3, %4
  %11 = srem i64 %3, %4
  %12 = icmp sgt i64 %4, 0
  br i1 %12, label %13, label %15

13:                                               ; preds = %9
  %14 = icmp slt i64 %11, 0
  br i1 %14, label %17, label %19

15:                                               ; preds = %9
  %16 = icmp sgt i64 %11, 0
  br i1 %16, label %17, label %19

17:                                               ; preds = %15, %13
  %18 = add nsw i64 %10, -1
  br label %19

19:                                               ; preds = %17, %15, %13
  %.024.i.i = phi i64 [ %18, %17 ], [ %10, %13 ], [ %10, %15 ]
  %20 = shl i64 %.024.i.i, 1
  %21 = or disjoint i64 %20, 1
  br label %rb_fix_div_fix.exit

rb_fix_div_fix.exit:                              ; preds = %7, %19
  %.0.i = phi i64 [ %8, %7 ], [ %21, %19 ]
  ret i64 %.0.i
}